Certificate:
    Data:
        Version: 3 (0x2)
        Serial Number: 4097 (0x1001)
        Signature Algorithm: sha256WithRSAEncryption
        Issuer: C=VN, ST=Da Nang, L=Da Nang, O=DUT, OU=IT Faculty, CN=www.dut.local
        Validity
            Not Before: Dec 29 23:32:10 2025 GMT
            Not After : Dec 29 23:32:10 2027 GMT
        Subject: CN=Nguyen Van A, O=DUT, OU=IT Faculty, C=VN, ST=Da Nang, L=Da Nang
        Subject Public Key Info:
            Public Key Algorithm: rsaEncryption
                Public-Key: (2048 bit)
                Modulus:
                    00:bf:41:a2:66:05:6f:12:b7:9f:5a:bd:00:07:05:
                    fa:3e:36:f7:1f:eb:02:4c:59:21:49:ff:69:98:ff:
                    10:07:b9:af:1c:e4:bf:58:22:b3:39:37:2b:07:10:
                    0c:71:c7:6b:e4:8a:90:5e:14:9e:cd:70:c1:a9:d9:
                    d2:50:71:65:b3:ac:99:43:2f:c6:c6:5c:fe:28:bb:
                    1f:4e:3a:7a:c4:05:cf:1b:1c:76:cf:1d:28:ac:06:
                    23:35:87:ba:e3:d1:dc:bf:d6:c1:04:4a:dc:a8:60:
                    e6:0b:65:4c:a5:01:58:58:98:5b:51:96:80:72:33:
                    6c:d5:76:ff:c0:0e:7a:1f:97:6e:1b:a2:29:6f:d2:
                    2e:0f:0e:c7:c2:7b:71:8a:44:4c:37:1e:c2:08:2d:
                    27:5f:f1:ac:90:56:b3:68:ab:0c:ba:76:d8:d5:f1:
                    a8:b3:b7:98:16:b6:e1:67:9c:09:fc:d7:9f:b7:55:
                    bc:c6:93:a5:32:cc:e8:80:99:82:c4:f1:a2:a9:af:
                    0d:e2:3e:e5:a5:88:41:f7:4d:87:0f:84:e9:46:69:
                    ea:d6:ba:3e:ba:3b:fe:04:46:0d:93:0f:0a:4c:fd:
                    5f:a2:14:6c:3e:96:23:42:33:07:29:ad:b5:ad:60:
                    5b:03:fd:2d:6c:f9:00:0d:7a:13:f9:ce:a1:bf:20:
                    ea:6b
                Exponent: 65537 (0x10001)
        X509v3 extensions:
            X509v3 Basic Constraints: 
                CA:FALSE
            X509v3 Key Usage: critical
                Digital Signature
            X509v3 Extended Key Usage: 
                E-mail Protection, TLS Web Client Authentication
            X509v3 Subject Key Identifier: 
                14:7C:05:EA:91:1A:51:77:94:3B:A3:4A:AA:10:A8:39:4B:E4:FA:5F
            X509v3 Authority Key Identifier: 
                35:14:C7:4D:CC:7E:BC:E7:87:F3:34:1A:DC:F8:D9:A8:3B:56:93:E0
    Signature Algorithm: sha256WithRSAEncryption
    Signature Value:
        1c:a3:f3:81:66:91:8c:7f:d5:75:58:02:35:26:b5:5a:10:76:
        f4:66:07:d3:bb:50:23:ca:56:14:44:b8:8f:71:dd:17:88:4b:
        af:cb:d0:a6:80:12:19:5f:f7:a6:72:28:0e:8d:5c:a9:11:51:
        98:8f:83:9a:fd:01:c0:c1:49:38:fe:5f:02:b0:f6:2f:3c:ca:
        ab:a5:03:76:a8:e7:99:b0:42:e6:f2:a7:a8:82:16:d4:a3:90:
        73:f5:e0:a9:fc:07:1a:17:35:ab:0a:c0:fb:25:1f:d6:ae:9a:
        dc:81:a6:1a:21:e7:68:df:d0:4d:57:0c:95:9c:b7:ea:71:71:
        67:2f:13:78:d2:a7:a8:37:eb:b3:fc:1c:0a:92:a9:9e:2e:6c:
        7d:3e:d3:ac:f0:a4:e4:52:68:86:f1:b8:9b:f6:69:3b:a2:d5:
        fa:0d:06:49:46:85:5c:da:d5:79:aa:a3:17:f0:ae:aa:b1:31:
        51:0d:8c:4e:82:6c:32:4d:9a:df:e0:10:b8:13:91:dd:78:1b:
        20:6d:6e:71:d7:ac:fd:21:e8:f4:0f:4a:55:47:bb:1c:4e:9c:
        0f:38:a0:bc:3f:cc:37:e2:34:4a:c5:ea:9c:61:22:c1:af:b3:
        c2:2c:f0:c5:5a:ae:10:c2:f7:31:6e:c8:58:7d:fe:b1:ef:54:
        7b:87:fa:33:72:43:d6:52:24:4c:8e:92:53:06:f4:7e:b0:c8:
        6c:6e:89:2c:37:36:05:14:2e:fb:26:56:b0:61:86:c9:86:5e:
        6e:0c:f1:59:39:f2:80:03:ab:d1:1d:46:4d:fb:d7:f4:da:d0:
        e6:fe:b6:6d:bb:a3:6c:81:28:cf:55:f5:97:9a:05:94:11:50:
        96:56:35:55:24:88:bf:98:ae:6b:b5:c5:99:20:bb:a2:74:f7:
        6e:db:f2:e7:c9:d6:45:df:a2:cd:4d:26:9c:81:24:82:eb:ee:
        af:43:60:35:2b:f7:c4:84:5f:1e:ec:b2:66:2f:8b:c6:f5:65:
        2d:1f:ef:a9:9a:7e:7b:e8:61:b2:34:86:39:bb:eb:4e:e4:70:
        0a:66:8c:e5:7d:e0:11:7f:20:a0:65:be:5d:ca:21:d7:0a:08:
        ed:60:9d:0a:5b:ba:e2:f9:fb:be:13:74:c1:ba:78:1f:d8:7e:
        15:23:fb:40:6c:55:83:b7:c8:fa:41:f4:4f:9e:e7:83:92:89:
        14:81:31:4c:a8:81:a0:b1:df:62:46:a0:c1:ee:ce:13:9e:2e:
        44:cf:ba:47:be:ee:7c:60:f9:c4:7c:49:34:e0:a4:ba:38:2f:
        3d:83:fa:7f:c9:f9:76:d1:f1:94:8b:7d:ce:ae:45:35:8a:af:
        26:0c:e2:83:51:a8:87:7e
-----BEGIN CERTIFICATE-----
MIIEzzCCAregAwIBAgICEAEwDQYJKoZIhvcNAQELBQAwbDELMAkGA1UEBhMCVk4x
EDAOBgNVBAgMB0RhIE5hbmcxEDAOBgNVBAcMB0RhIE5hbmcxDDAKBgNVBAoMA0RV
VDETMBEGA1UECwwKSVQgRmFjdWx0eTEWMBQGA1UEAwwNd3d3LmR1dC5sb2NhbDAe
Fw0yNTEyMjkyMzMyMTBaFw0yNzEyMjkyMzMyMTBaMGsxFTATBgNVBAMMDE5ndXll
biBWYW4gQTEMMAoGA1UECgwDRFVUMRMwEQYDVQQLDApJVCBGYWN1bHR5MQswCQYD
VQQGEwJWTjEQMA4GA1UECAwHRGEgTmFuZzEQMA4GA1UEBwwHRGEgTmFuZzCCASIw
DQYJKoZIhvcNAQEBBQADggEPADCCAQoCggEBAL9BomYFbxK3n1q9AAcF+j429x/r
AkxZIUn/aZj/EAe5rxzkv1giszk3KwcQDHHHa+SKkF4Uns1wwanZ0lBxZbOsmUMv
xsZc/ii7H046esQFzxscds8dKKwGIzWHuuPR3L/WwQRK3Khg5gtlTKUBWFiYW1GW
gHIzbNV2/8AOeh+XbhuiKW/SLg8Ox8J7cYpETDcewggtJ1/xrJBWs2irDLp22NXx
qLO3mBa24WecCfzXn7dVvMaTpTLM6ICZgsTxoqmvDeI+5aWIQfdNhw+E6UZp6ta6
Pro7/gRGDZMPCkz9X6IUbD6WI0IzBymtta1gWwP9LWz5AA16E/nOob8g6msCAwEA
AaN8MHowCQYDVR0TBAIwADAOBgNVHQ8BAf8EBAMCB4AwHQYDVR0lBBYwFAYIKwYB
BQUHAwQGCCsGAQUFBwMCMB0GA1UdDgQWBBQUfAXqkRpRd5Q7o0qqEKg5S+T6XzAf
BgNVHSMEGDAWgBQ1FMdNzH6854fzNBrc+NmoO1aT4DANBgkqhkiG9w0BAQsFAAOC
AgEAHKPzgWaRjH/VdVgCNSa1WhB29GYH07tQI8pWFES4j3HdF4hLr8vQpoASGV/3
pnIoDo1cqRFRmI+Dmv0BwMFJOP5fArD2LzzKq6UDdqjnmbBC5vKnqIIW1KOQc/Xg
qfwHGhc1qwrA+yUf1q6a3IGmGiHnaN/QTVcMlZy36nFxZy8TeNKnqDfrs/wcCpKp
ni5sfT7TrPCk5FJohvG4m/ZpO6LV+g0GSUaFXNrVeaqjF/CuqrExUQ2MToJsMk2a
3+AQuBOR3XgbIG1ucdes/SHo9A9KVUe7HE6cDzigvD/MN+I0SsXqnGEiwa+zwizw
xVquEML3MW7IWH3+se9Ue4f6M3JD1lIkTI6SUwb0frDIbG6JLDc2BRQu+yZWsGGG
yYZebgzxWTnygAOr0R1GTfvX9NrQ5v62bbujbIEoz1X1l5oFlBFQllY1VSSIv5iu
a7XFmSC7onT3btvy58nWRd+izU0mnIEkguvur0NgNSv3xIRfHuyyZi+LxvVlLR/v
qZp+e+hhsjSGObvrTuRwCmaM5X3gEX8goGW+Xcoh1woI7WCdClu64vn7vhN0wbp4
H9h+FSP7QGxVg7fI+kH0T57ng5KJFIExTKiBoLHfYkagwe7OE54uRM+6R77ufGD5
xHxJNOCkujgvPYP6f8n5dtHxlIt9zq5FNYqvJgzig1Goh34=
-----END CERTIFICATE-----
