Certificate:
    Data:
        Version: 3 (0x2)
        Serial Number: 4098 (0x1002)
        Signature Algorithm: sha256WithRSAEncryption
        Issuer: C=VN, ST=Da Nang, L=Da Nang, O=DUT, OU=Intermediate CA, CN=DUT Intermediate Certification Authority
        Validity
            Not Before: Dec 29 23:44:48 2025 GMT
            Not After : Dec 29 23:44:48 2027 GMT
        Subject: CN=Nguyen Van A, O=DUT, OU=IT Faculty, C=VN, ST=Da Nang, L=Da Nang
        Subject Public Key Info:
            Public Key Algorithm: rsaEncryption
                Public-Key: (2048 bit)
                Modulus:
                    00:bf:41:a2:66:05:6f:12:b7:9f:5a:bd:00:07:05:
                    fa:3e:36:f7:1f:eb:02:4c:59:21:49:ff:69:98:ff:
                    10:07:b9:af:1c:e4:bf:58:22:b3:39:37:2b:07:10:
                    0c:71:c7:6b:e4:8a:90:5e:14:9e:cd:70:c1:a9:d9:
                    d2:50:71:65:b3:ac:99:43:2f:c6:c6:5c:fe:28:bb:
                    1f:4e:3a:7a:c4:05:cf:1b:1c:76:cf:1d:28:ac:06:
                    23:35:87:ba:e3:d1:dc:bf:d6:c1:04:4a:dc:a8:60:
                    e6:0b:65:4c:a5:01:58:58:98:5b:51:96:80:72:33:
                    6c:d5:76:ff:c0:0e:7a:1f:97:6e:1b:a2:29:6f:d2:
                    2e:0f:0e:c7:c2:7b:71:8a:44:4c:37:1e:c2:08:2d:
                    27:5f:f1:ac:90:56:b3:68:ab:0c:ba:76:d8:d5:f1:
                    a8:b3:b7:98:16:b6:e1:67:9c:09:fc:d7:9f:b7:55:
                    bc:c6:93:a5:32:cc:e8:80:99:82:c4:f1:a2:a9:af:
                    0d:e2:3e:e5:a5:88:41:f7:4d:87:0f:84:e9:46:69:
                    ea:d6:ba:3e:ba:3b:fe:04:46:0d:93:0f:0a:4c:fd:
                    5f:a2:14:6c:3e:96:23:42:33:07:29:ad:b5:ad:60:
                    5b:03:fd:2d:6c:f9:00:0d:7a:13:f9:ce:a1:bf:20:
                    ea:6b
                Exponent: 65537 (0x10001)
        X509v3 extensions:
            X509v3 Basic Constraints: 
                CA:FALSE
            X509v3 Key Usage: critical
                Digital Signature
            X509v3 Extended Key Usage: 
                E-mail Protection, TLS Web Client Authentication
            X509v3 Subject Key Identifier: 
                14:7C:05:EA:91:1A:51:77:94:3B:A3:4A:AA:10:A8:39:4B:E4:FA:5F
            X509v3 Authority Key Identifier: 
                35:14:C7:4D:CC:7E:BC:E7:87:F3:34:1A:DC:F8:D9:A8:3B:56:93:E0
    Signature Algorithm: sha256WithRSAEncryption
    Signature Value:
        9d:18:59:0b:ed:1b:3a:52:68:e9:91:ae:78:e2:2d:60:c6:25:
        ba:12:aa:56:17:4a:a3:2e:e6:97:e4:67:c3:79:0b:37:e0:9e:
        29:f4:3e:45:c4:83:15:a0:af:8a:43:bd:8a:c3:ef:e9:4f:c3:
        ae:c8:fd:27:de:6a:1a:04:1a:ae:d9:c7:f2:54:02:6f:48:c3:
        68:0a:b6:ba:db:16:c4:ff:08:7d:97:32:eb:23:d2:d7:91:a8:
        5d:ce:83:f1:6e:1f:b4:b9:4e:53:2c:0a:1d:e9:9a:9b:1e:3f:
        ea:57:65:6a:f0:db:e3:3b:b6:f0:f3:57:25:43:a1:8c:cd:60:
        fa:ec:b1:a6:27:37:97:f2:72:c1:cc:b5:49:50:1c:03:f8:b2:
        d2:58:96:a3:14:44:f8:7b:1e:dc:85:ae:07:28:6d:19:f7:35:
        0f:82:76:60:dd:23:55:6e:d5:bf:77:35:f9:d6:67:59:2e:bb:
        12:a8:3f:1d:04:49:78:d1:c8:ab:6f:d3:66:54:59:9c:53:a9:
        24:e6:ac:52:1c:e5:96:5f:a7:aa:50:09:bb:0f:35:82:b5:a5:
        05:c4:34:7b:03:dc:9a:9f:a9:1f:1f:d8:b2:6a:d4:e6:42:80:
        2b:bd:16:f9:32:69:11:fb:c1:9b:50:6d:e9:d7:07:cf:48:67:
        00:07:8c:78:f4:12:b9:27:c2:d1:42:36:47:1a:91:69:ee:01:
        6e:2d:2e:47:26:b1:67:f0:b8:d6:74:88:99:f5:f8:8f:97:7c:
        60:3f:77:77:7b:de:55:8d:d4:df:79:1a:48:9a:b3:c9:8a:04:
        79:7a:28:3a:85:52:3a:e4:78:95:c5:22:55:74:43:c8:dc:b6:
        09:72:77:65:9a:61:81:ec:72:c2:1c:68:76:5b:1d:57:28:7b:
        56:8e:c8:8e:30:68:5e:ec:40:5a:97:db:f6:ee:25:9d:0a:f9:
        79:c2:9d:c0:a9:76:20:02:1b:41:82:2a:fc:4b:06:3e:8f:73:
        df:3f:85:f2:02:de:83:83:42:88:1d:4b:91:72:4d:59:27:d8:
        3f:ad:33:30:35:0e:b9:4e:4e:23:f5:95:c1:a5:c5:10:c5:02:
        d0:d2:88:02:8c:15:d3:3a:a1:8e:ec:2e:cc:cf:57:c2:b3:7c:
        3a:b1:46:e2:b6:fb:55:a7:dc:20:6f:2f:09:3d:11:00:36:b0:
        8d:f4:24:13:c0:8b:d9:d1:da:08:d6:6d:28:3f:8d:78:8d:9f:
        75:1b:a9:a5:bb:2a:32:23:f8:49:d5:1f:4a:ff:f0:85:e3:9e:
        03:2d:6d:fb:c4:40:75:85:95:5f:81:e9:3c:84:e1:04:6a:35:
        aa:5e:b9:74:50:81:74:ae
-----BEGIN CERTIFICATE-----
MIIE8DCCAtigAwIBAgICEAIwDQYJKoZIhvcNAQELBQAwgYwxCzAJBgNVBAYTAlZO
MRAwDgYDVQQIDAdEYSBOYW5nMRAwDgYDVQQHDAdEYSBOYW5nMQwwCgYDVQQKDANE
VVQxGDAWBgNVBAsMD0ludGVybWVkaWF0ZSBDQTExMC8GA1UEAwwoRFVUIEludGVy
bWVkaWF0ZSBDZXJ0aWZpY2F0aW9uIEF1dGhvcml0eTAeFw0yNTEyMjkyMzQ0NDha
Fw0yNzEyMjkyMzQ0NDhaMGsxFTATBgNVBAMMDE5ndXllbiBWYW4gQTEMMAoGA1UE
CgwDRFVUMRMwEQYDVQQLDApJVCBGYWN1bHR5MQswCQYDVQQGEwJWTjEQMA4GA1UE
CAwHRGEgTmFuZzEQMA4GA1UEBwwHRGEgTmFuZzCCASIwDQYJKoZIhvcNAQEBBQAD
ggEPADCCAQoCggEBAL9BomYFbxK3n1q9AAcF+j429x/rAkxZIUn/aZj/EAe5rxzk
v1giszk3KwcQDHHHa+SKkF4Uns1wwanZ0lBxZbOsmUMvxsZc/ii7H046esQFzxsc
ds8dKKwGIzWHuuPR3L/WwQRK3Khg5gtlTKUBWFiYW1GWgHIzbNV2/8AOeh+Xbhui
KW/SLg8Ox8J7cYpETDcewggtJ1/xrJBWs2irDLp22NXxqLO3mBa24WecCfzXn7dV
vMaTpTLM6ICZgsTxoqmvDeI+5aWIQfdNhw+E6UZp6ta6Pro7/gRGDZMPCkz9X6IU
bD6WI0IzBymtta1gWwP9LWz5AA16E/nOob8g6msCAwEAAaN8MHowCQYDVR0TBAIw
ADAOBgNVHQ8BAf8EBAMCB4AwHQYDVR0lBBYwFAYIKwYBBQUHAwQGCCsGAQUFBwMC
MB0GA1UdDgQWBBQUfAXqkRpRd5Q7o0qqEKg5S+T6XzAfBgNVHSMEGDAWgBQ1FMdN
zH6854fzNBrc+NmoO1aT4DANBgkqhkiG9w0BAQsFAAOCAgEAnRhZC+0bOlJo6ZGu
eOItYMYluhKqVhdKoy7ml+Rnw3kLN+CeKfQ+RcSDFaCvikO9isPv6U/Drsj9J95q
GgQartnH8lQCb0jDaAq2utsWxP8IfZcy6yPS15GoXc6D8W4ftLlOUywKHemamx4/
6ldlavDb4zu28PNXJUOhjM1g+uyxpic3l/Jywcy1SVAcA/iy0liWoxRE+Hse3IWu
ByhtGfc1D4J2YN0jVW7Vv3c1+dZnWS67Eqg/HQRJeNHIq2/TZlRZnFOpJOasUhzl
ll+nqlAJuw81grWlBcQ0ewPcmp+pHx/YsmrU5kKAK70W+TJpEfvBm1Bt6dcHz0hn
AAeMePQSuSfC0UI2RxqRae4Bbi0uRyaxZ/C41nSImfX4j5d8YD93d3veVY3U33ka
SJqzyYoEeXooOoVSOuR4lcUiVXRDyNy2CXJ3ZZphgexywhxodlsdVyh7Vo7IjjBo
XuxAWpfb9u4lnQr5ecKdwKl2IAIbQYIq/EsGPo9z3z+F8gLeg4NCiB1LkXJNWSfY
P60zMDUOuU5OI/WVwaXFEMUC0NKIAowV0zqhjuwuzM9XwrN8OrFG4rb7VafcIG8v
CT0RADawjfQkE8CL2dHaCNZtKD+NeI2fdRuppbsqMiP4SdUfSv/wheOeAy1t+8RA
dYWVX4HpPIThBGo1ql65dFCBdK4=
-----END CERTIFICATE-----
