Certificate:
    Data:
        Version: 3 (0x2)
        Serial Number: 8192 (0x2000)
        Signature Algorithm: sha256WithRSAEncryption
        Issuer: C=VN, ST=Da Nang, L=Da Nang, O=DUT, OU=Root CA, CN=DUT Root Certification Authority
        Validity
            Not Before: Dec 29 05:05:52 2025 GMT
            Not After : Dec 27 05:05:52 2035 GMT
        Subject: C=VN, ST=Da Nang, L=Da Nang, O=DUT, OU=Intermediate CA, CN=DUT Intermediate Certification Authority
        Subject Public Key Info:
            Public Key Algorithm: rsaEncryption
                Public-Key: (4096 bit)
                Modulus:
                    00:c3:7d:4e:a6:39:e4:de:9f:19:eb:b2:55:c9:4e:
                    42:d6:a0:2f:81:f5:8e:f3:eb:38:54:22:ac:82:21:
                    7b:7b:ab:65:b9:87:fd:91:33:e0:76:20:d8:a7:fd:
                    f9:0e:e3:d9:5f:b0:aa:6f:c9:9a:5a:a6:b5:a3:c9:
                    c6:da:63:4c:ec:be:5b:52:57:57:72:48:0c:ac:6d:
                    35:ae:cf:78:a9:63:3a:dd:f0:00:91:d0:cd:ce:c7:
                    d1:5e:af:34:bb:ac:37:5b:8e:95:48:7b:00:13:68:
                    6e:71:ab:32:2f:bf:e0:12:49:4d:9e:0a:dd:7b:52:
                    ef:ce:f1:57:9c:71:ff:85:15:18:85:48:04:0d:b3:
                    0f:65:3e:1c:58:21:93:04:ab:66:a1:31:43:bf:1d:
                    d2:ae:dc:b1:ac:ad:23:30:98:e7:26:27:35:d3:46:
                    c0:51:77:e1:ec:8e:49:79:b5:50:07:c1:06:57:aa:
                    d5:18:fc:bc:d8:17:de:fa:b7:a6:55:fb:26:f8:3b:
                    df:b1:bc:fa:6b:aa:03:c6:f3:45:39:56:d2:d0:1e:
                    fc:b0:f6:97:ea:80:ee:c9:de:07:69:44:ff:8c:6a:
                    fc:bb:9f:7d:07:d4:7f:8e:28:22:f1:1c:8e:4d:b5:
                    83:fd:73:90:ff:5e:20:6b:7b:d3:23:0a:65:7e:3f:
                    2f:7b:10:ec:ee:3a:fe:00:af:0e:7b:e4:7b:dc:e5:
                    6d:c8:ff:63:25:bd:da:cf:3f:2b:22:03:26:ea:69:
                    18:29:5b:c5:b7:e7:8f:d6:87:ee:86:b8:5a:5a:5a:
                    39:57:d6:14:10:04:e3:60:08:a1:c8:f8:d7:15:21:
                    f2:4c:02:47:59:f1:90:2f:a6:be:1f:9a:3e:07:9e:
                    d1:09:f9:53:5d:27:62:a0:ef:20:ce:4a:46:43:d7:
                    9b:f5:f7:2d:28:e1:65:33:d1:7d:bd:95:6f:f9:bd:
                    6d:d2:b6:62:86:f4:98:bf:d2:ab:aa:90:c2:c8:f5:
                    b4:e6:a3:1f:71:18:d9:49:37:43:e8:7c:44:74:9f:
                    bf:17:8a:c7:43:e8:05:22:71:ec:ae:68:34:38:95:
                    c1:10:61:cb:20:cb:da:30:89:8f:3a:6e:6f:32:f8:
                    23:22:92:77:d5:f1:fd:81:20:f3:0c:7e:50:a7:36:
                    66:61:21:2b:b0:15:25:f2:13:54:e0:0b:8f:0f:bf:
                    db:85:57:a9:ef:20:76:08:e0:45:08:c5:ac:d6:a3:
                    75:89:9b:7a:b7:2b:94:8e:7d:88:bc:fe:8d:e1:c9:
                    7d:fd:0e:c9:7e:9d:52:4f:88:d0:ed:6b:8f:e3:95:
                    78:9c:30:c8:14:b5:96:67:84:97:6f:e6:93:f9:da:
                    38:e0:95
                Exponent: 65537 (0x10001)
        X509v3 extensions:
            X509v3 Basic Constraints: critical
                CA:TRUE, pathlen:0
            X509v3 Key Usage: critical
                Digital Signature, Certificate Sign, CRL Sign
            X509v3 Subject Key Identifier: 
                35:14:C7:4D:CC:7E:BC:E7:87:F3:34:1A:DC:F8:D9:A8:3B:56:93:E0
            X509v3 Authority Key Identifier: 
                02:7D:AA:4D:82:FA:5F:BF:88:44:A2:06:E7:9B:E4:1D:49:9A:AF:7A
    Signature Algorithm: sha256WithRSAEncryption
    Signature Value:
        bd:20:2c:61:82:77:fe:be:74:a7:d3:81:30:8c:1f:d4:18:fe:
        36:97:58:14:80:ce:4b:36:f9:32:ce:df:84:2c:c6:c9:83:eb:
        51:45:55:0d:f7:52:62:8f:45:6d:65:31:bc:22:8a:ff:8e:28:
        92:d4:25:d4:aa:72:3e:48:ae:8c:bb:11:92:92:7e:70:92:99:
        09:a6:76:86:16:28:12:66:7e:15:49:48:9f:2f:11:67:8e:57:
        8d:46:09:cf:f3:d8:50:68:30:82:4e:5e:50:a3:a5:35:34:37:
        4b:ac:fd:36:16:0b:ac:85:8a:87:30:48:dd:41:b9:39:98:18:
        82:92:7d:9e:aa:8b:0b:24:35:00:de:b5:d5:6c:80:b7:45:61:
        ec:af:04:9e:f5:4f:01:d7:41:69:b9:81:9a:29:a3:91:cb:94:
        15:bf:ec:7f:51:65:b1:04:24:f5:79:4a:e8:9e:f4:b9:ea:ec:
        91:bb:d6:42:12:5e:1a:c0:de:3f:ec:02:c7:27:b9:48:a9:73:
        ce:d3:77:59:c2:d5:93:49:0d:bf:6d:36:f2:63:6c:6b:fd:6c:
        14:5b:ef:08:ce:b1:c3:10:2f:c2:68:11:83:83:a5:15:ee:74:
        9a:16:af:23:07:38:2a:d3:6d:4a:bb:42:39:e1:00:62:73:58:
        40:e9:7b:7d:15:05:4d:ff:f6:7e:6b:47:0b:a4:bf:69:55:0a:
        68:65:da:7f:88:65:1d:93:27:fc:51:ef:ae:c1:75:e3:1b:9c:
        ea:2d:51:93:cd:10:53:56:a6:50:99:65:e6:1c:a9:09:23:b4:
        e0:f6:1e:74:61:d5:19:d1:38:ed:d0:a3:00:bd:cc:79:cb:ff:
        a5:77:8c:32:b0:ae:62:77:5a:4f:21:3a:87:f1:68:42:64:48:
        bd:45:5a:14:ab:b7:69:d3:4f:86:80:a4:d9:69:27:37:03:d3:
        cd:4d:93:4c:1e:78:94:dd:c0:a4:23:c9:ab:ab:b2:ff:f5:c7:
        f2:2a:f5:ce:ef:94:86:b1:91:76:fa:00:1a:a5:f6:06:72:9c:
        fe:14:2c:de:4c:f6:46:77:df:98:3e:66:2e:04:05:6c:ac:54:
        66:34:1b:f4:aa:5b:1f:39:12:36:e9:8f:31:c9:09:cf:ce:3c:
        36:bf:a3:2b:6e:d6:e0:f5:12:55:1f:8b:7c:0f:9d:14:71:81:
        07:9d:35:6e:fd:fb:11:db:bc:b2:7c:24:3d:b2:0b:12:38:d1:
        16:75:ec:41:ba:93:00:6c:d1:c6:3e:01:9d:81:9a:f1:ac:ad:
        ca:2a:37:be:40:ff:bc:e8:84:63:8c:bc:5a:bc:47:5d:5d:d8:
        f1:c2:ca:ff:02:cd:9a:c5
-----BEGIN CERTIFICATE-----
MIIF6zCCA9OgAwIBAgICIAAwDQYJKoZIhvcNAQELBQAwfDELMAkGA1UEBhMCVk4x
EDAOBgNVBAgMB0RhIE5hbmcxEDAOBgNVBAcMB0RhIE5hbmcxDDAKBgNVBAoMA0RV
VDEQMA4GA1UECwwHUm9vdCBDQTEpMCcGA1UEAwwgRFVUIFJvb3QgQ2VydGlmaWNh
dGlvbiBBdXRob3JpdHkwHhcNMjUxMjI5MDUwNTUyWhcNMzUxMjI3MDUwNTUyWjCB
jDELMAkGA1UEBhMCVk4xEDAOBgNVBAgMB0RhIE5hbmcxEDAOBgNVBAcMB0RhIE5h
bmcxDDAKBgNVBAoMA0RVVDEYMBYGA1UECwwPSW50ZXJtZWRpYXRlIENBMTEwLwYD
VQQDDChEVVQgSW50ZXJtZWRpYXRlIENlcnRpZmljYXRpb24gQXV0aG9yaXR5MIIC
IjANBgkqhkiG9w0BAQEFAAOCAg8AMIICCgKCAgEAw31Opjnk3p8Z67JVyU5C1qAv
gfWO8+s4VCKsgiF7e6tluYf9kTPgdiDYp/35DuPZX7Cqb8maWqa1o8nG2mNM7L5b
UldXckgMrG01rs94qWM63fAAkdDNzsfRXq80u6w3W46VSHsAE2hucasyL7/gEklN
ngrde1LvzvFXnHH/hRUYhUgEDbMPZT4cWCGTBKtmoTFDvx3SrtyxrK0jMJjnJic1
00bAUXfh7I5JebVQB8EGV6rVGPy82Bfe+remVfsm+Dvfsbz6a6oDxvNFOVbS0B78
sPaX6oDuyd4HaUT/jGr8u599B9R/jigi8RyOTbWD/XOQ/14ga3vTIwplfj8vexDs
7jr+AK8Oe+R73OVtyP9jJb3azz8rIgMm6mkYKVvFt+eP1ofuhrhaWlo5V9YUEATj
YAihyPjXFSHyTAJHWfGQL6a+H5o+B57RCflTXSdioO8gzkpGQ9eb9fctKOFlM9F9
vZVv+b1t0rZihvSYv9KrqpDCyPW05qMfcRjZSTdD6HxEdJ+/F4rHQ+gFInHsrmg0
OJXBEGHLIMvaMImPOm5vMvgjIpJ31fH9gSDzDH5QpzZmYSErsBUl8hNU4AuPD7/b
hVep7yB2COBFCMWs1qN1iZt6tyuUjn2IvP6N4cl9/Q7Jfp1ST4jQ7WuP45V4nDDI
FLWWZ4SXb+aT+do44JUCAwEAAaNmMGQwEgYDVR0TAQH/BAgwBgEB/wIBADAOBgNV
HQ8BAf8EBAMCAYYwHQYDVR0OBBYEFDUUx03Mfrznh/M0Gtz42ag7VpPgMB8GA1Ud
IwQYMBaAFAJ9qk2C+l+/iESiBueb5B1Jmq96MA0GCSqGSIb3DQEBCwUAA4ICAQC9
ICxhgnf+vnSn04EwjB/UGP42l1gUgM5LNvkyzt+ELMbJg+tRRVUN91Jij0VtZTG8
Ior/jiiS1CXUqnI+SK6MuxGSkn5wkpkJpnaGFigSZn4VSUifLxFnjleNRgnP89hQ
aDCCTl5Qo6U1NDdLrP02FgushYqHMEjdQbk5mBiCkn2eqosLJDUA3rXVbIC3RWHs
rwSe9U8B10FpuYGaKaORy5QVv+x/UWWxBCT1eUronvS56uyRu9ZCEl4awN4/7ALH
J7lIqXPO03dZwtWTSQ2/bTbyY2xr/WwUW+8IzrHDEC/CaBGDg6UV7nSaFq8jBzgq
021Ku0I54QBic1hA6Xt9FQVN//Z+a0cLpL9pVQpoZdp/iGUdkyf8Ue+uwXXjG5zq
LVGTzRBTVqZQmWXmHKkJI7Tg9h50YdUZ0Tjt0KMAvcx5y/+ld4wysK5id1pPITqH
8WhCZEi9RVoUq7dp00+GgKTZaSc3A9PNTZNMHniU3cCkI8mrq7L/9cfyKvXO75SG
sZF2+gAapfYGcpz+FCzeTPZGd9+YPmYuBAVsrFRmNBv0qlsfORI26Y8xyQnPzjw2
v6Mrbtbg9RJVH4t8D50UcYEHnTVu/fsR27yyfCQ9sgsSONEWdexBupMAbNHGPgGd
gZrxrK3KKje+QP+86IRjjLxavEddXdjxwsr/As2axQ==
-----END CERTIFICATE-----
